target datalayout = "e-m:e-p270:32:32-p271:32:32-p272:64:64-i64:64-i128:128-f80:128-n8:16:32:64-S128"
target triple = "x86_64-unknown-linux-gnu"

%struct.QTailQLink = type { ptr, ptr }
%struct.BlockDriverState = type { i32, i8, i8, i8, i8, i8, ptr, ptr, ptr, %struct.anon.0, i8, [4096 x i8], [4096 x i8], [4096 x i8], [16 x i8], ptr, [4096 x i8], %struct.BlockLimits, i32, i32, i32, i32, [32 x i8], %union.anon.1, %union.anon.2, %union.anon.3, i32, [16 x %struct.anon.4], ptr, %struct.anon.5, ptr, ptr, %struct.anon.6, ptr, ptr, i32, ptr, i64, i64, %struct.QemuMutex, %struct.anon.7, %struct.Stat64, i32, i32, i32, i32, i32, i32, %struct.QemuMutex, %struct.anon.8, %struct.CoQueue, i8, i32, i8, %struct.CoMutex, ptr, ptr }
%struct.anon.0 = type { ptr }
%struct.BlockLimits = type { i32, i64, i32, i64, i32, i32, i32, i64, i32, i64, i64, i32, i8, i32, i32, i32, i32, i32, i32, i32 }
%union.anon.1 = type { %struct.QTailQLink }
%union.anon.2 = type { %struct.QTailQLink }
%union.anon.3 = type { %struct.QTailQLink }
%struct.anon.4 = type { ptr }
%struct.anon.5 = type { ptr }
%struct.anon.6 = type { ptr }
%struct.anon.7 = type { ptr }
%struct.Stat64 = type { i64 }
%struct.QemuMutex = type { %union.pthread_mutex_t, i8 }
%union.pthread_mutex_t = type { %struct.__pthread_mutex_s }
%struct.__pthread_mutex_s = type { i32, i32, i32, i32, i32, i16, i16, %struct.__pthread_internal_list }
%struct.__pthread_internal_list = type { ptr, ptr }
%struct.anon.8 = type { ptr }
%struct.CoQueue = type { %struct.anon.9 }
%struct.anon.9 = type { ptr, ptr }
%struct.CoMutex = type { i32, ptr, %struct.anon.10, %struct.anon.10, i32, i32, ptr }
%struct.anon.10 = type { ptr }
%struct.BDRVParallelsState = type { %struct.CoMutex, ptr, i32, i8, ptr, i32, ptr, i64, ptr, i32, i64, i64, i64, i32, i32, i32, i32, ptr }
%struct.QEMUIOVector = type { ptr, i32, %union.anon.15 }
%union.anon.15 = type { %struct.anon.16 }
%struct.anon.16 = type { i32, %struct.iovec }
%struct.iovec = type { ptr, i64 }

; Function Attrs: nounwind sspstrong uwtable
define internal i32 @le32_to_cpu(i32 noundef %v) #0 {
entry:
  %v.addr = alloca i32, align 4
  store i32 %v, ptr %v.addr, align 4
  %0 = load i32, ptr %v.addr, align 4
  ret i32 %0
}

; Function Attrs: nounwind sspstrong uwtable
define internal i64 @bat2sect(ptr noundef %s, i32 noundef %idx) #0 {
entry:
  %s.addr = alloca ptr, align 8
  %idx.addr = alloca i32, align 4
  store ptr %s, ptr %s.addr, align 8
  store i32 %idx, ptr %idx.addr, align 4
  %0 = load ptr, ptr %s.addr, align 8
  %bat_bitmap = getelementptr inbounds %struct.BDRVParallelsState, ptr %0, i32 0, i32 8
  %1 = load ptr, ptr %bat_bitmap, align 8
  %2 = load i32, ptr %idx.addr, align 4
  %idxprom = zext i32 %2 to i64
  %arrayidx = getelementptr i32, ptr %1, i64 %idxprom
  %3 = load i32, ptr %arrayidx, align 4
  %call = call i32 @le32_to_cpu(i32 noundef %3)
  %conv = zext i32 %call to i64
  %4 = load ptr, ptr %s.addr, align 8
  %off_multiplier = getelementptr inbounds %struct.BDRVParallelsState, ptr %4, i32 0, i32 16
  %5 = load i32, ptr %off_multiplier, align 4
  %conv1 = zext i32 %5 to i64
  %mul = mul i64 %conv, %conv1
  ret i64 %mul
}

; Function Attrs: nounwind sspstrong uwtable
define internal i32 @cluster_remainder(ptr noundef %s, i64 noundef %sector_num, i32 noundef %nb_sectors) #0 {
entry:
  %s.addr = alloca ptr, align 8
  %sector_num.addr = alloca i64, align 8
  %nb_sectors.addr = alloca i32, align 4
  %ret = alloca i32, align 4
  %_a4 = alloca i32, align 4
  %_b5 = alloca i32, align 4
  %tmp = alloca i32, align 4
  store ptr %s, ptr %s.addr, align 8
  store i64 %sector_num, ptr %sector_num.addr, align 8
  store i32 %nb_sectors, ptr %nb_sectors.addr, align 4
  %0 = load ptr, ptr %s.addr, align 8
  %tracks = getelementptr inbounds %struct.BDRVParallelsState, ptr %0, i32 0, i32 14
  %1 = load i32, ptr %tracks, align 4
  %conv = zext i32 %1 to i64
  %2 = load i64, ptr %sector_num.addr, align 8
  %3 = load ptr, ptr %s.addr, align 8
  %tracks1 = getelementptr inbounds %struct.BDRVParallelsState, ptr %3, i32 0, i32 14
  %4 = load i32, ptr %tracks1, align 4
  %conv2 = zext i32 %4 to i64
  %rem = srem i64 %2, %conv2
  %sub = sub i64 %conv, %rem
  %conv3 = trunc i64 %sub to i32
  store i32 %conv3, ptr %ret, align 4
  %5 = load i32, ptr %nb_sectors.addr, align 4
  store i32 %5, ptr %_a4, align 4
  %6 = load i32, ptr %ret, align 4
  store i32 %6, ptr %_b5, align 4
  %7 = load i32, ptr %_a4, align 4
  %8 = load i32, ptr %_b5, align 4
  %cmp = icmp slt i32 %7, %8
  br i1 %cmp, label %cond.true, label %cond.false

cond.true:                                        ; preds = %entry
  %9 = load i32, ptr %_a4, align 4
  br label %cond.end

cond.false:                                       ; preds = %entry
  %10 = load i32, ptr %_b5, align 4
  br label %cond.end

cond.end:                                         ; preds = %cond.false, %cond.true
  %cond = phi i32 [ %9, %cond.true ], [ %10, %cond.false ]
  store i32 %cond, ptr %tmp, align 4
  %11 = load i32, ptr %tmp, align 4
  ret i32 %11
}

; Function Attrs: nounwind sspstrong uwtable
define internal i64 @seek_to_sector(ptr noundef %s, i64 noundef %sector_num) #0 {
entry:
  %retval = alloca i64, align 8
  %s.addr = alloca ptr, align 8
  %sector_num.addr = alloca i64, align 8
  %index = alloca i32, align 4
  %offset = alloca i32, align 4
  store ptr %s, ptr %s.addr, align 8
  store i64 %sector_num, ptr %sector_num.addr, align 8
  %0 = load i64, ptr %sector_num.addr, align 8
  %1 = load ptr, ptr %s.addr, align 8
  %tracks = getelementptr inbounds %struct.BDRVParallelsState, ptr %1, i32 0, i32 14
  %2 = load i32, ptr %tracks, align 4
  %conv = zext i32 %2 to i64
  %div = sdiv i64 %0, %conv
  %conv1 = trunc i64 %div to i32
  store i32 %conv1, ptr %index, align 4
  %3 = load i64, ptr %sector_num.addr, align 8
  %4 = load ptr, ptr %s.addr, align 8
  %tracks2 = getelementptr inbounds %struct.BDRVParallelsState, ptr %4, i32 0, i32 14
  %5 = load i32, ptr %tracks2, align 4
  %conv3 = zext i32 %5 to i64
  %rem = srem i64 %3, %conv3
  %conv4 = trunc i64 %rem to i32
  store i32 %conv4, ptr %offset, align 4
  %6 = load i32, ptr %index, align 4
  %7 = load ptr, ptr %s.addr, align 8
  %bat_size = getelementptr inbounds %struct.BDRVParallelsState, ptr %7, i32 0, i32 9
  %8 = load i32, ptr %bat_size, align 8
  %cmp = icmp uge i32 %6, %8
  br i1 %cmp, label %if.then, label %lor.lhs.false

lor.lhs.false:                                    ; preds = %entry
  %9 = load ptr, ptr %s.addr, align 8
  %bat_bitmap = getelementptr inbounds %struct.BDRVParallelsState, ptr %9, i32 0, i32 8
  %10 = load ptr, ptr %bat_bitmap, align 8
  %11 = load i32, ptr %index, align 4
  %idxprom = zext i32 %11 to i64
  %arrayidx = getelementptr i32, ptr %10, i64 %idxprom
  %12 = load i32, ptr %arrayidx, align 4
  %cmp6 = icmp eq i32 %12, 0
  br i1 %cmp6, label %if.then, label %if.end

if.then:                                          ; preds = %lor.lhs.false, %entry
  store i64 -1, ptr %retval, align 8
  br label %return

if.end:                                           ; preds = %lor.lhs.false
  %13 = load ptr, ptr %s.addr, align 8
  %14 = load i32, ptr %index, align 4
  %call = call i64 @bat2sect(ptr noundef %13, i32 noundef %14)
  %15 = load i32, ptr %offset, align 4
  %conv8 = zext i32 %15 to i64
  %add = add i64 %call, %conv8
  store i64 %add, ptr %retval, align 8
  br label %return

return:                                           ; preds = %if.end, %if.then
  %16 = load i64, ptr %retval, align 8
  ret i64 %16
}

; Function Attrs: nounwind sspstrong uwtable
define internal i64 @block_status(ptr noundef %s, i64 noundef %sector_num, i32 noundef %nb_sectors, ptr noundef %pnum) #0 {
entry:
  %s.addr = alloca ptr, align 8
  %sector_num.addr = alloca i64, align 8
  %nb_sectors.addr = alloca i32, align 4
  %pnum.addr = alloca ptr, align 8
  %start_off = alloca i64, align 8
  %prev_end_off = alloca i64, align 8
  %offset = alloca i64, align 8
  %to_end = alloca i32, align 4
  store ptr %s, ptr %s.addr, align 8
  store i64 %sector_num, ptr %sector_num.addr, align 8
  store i32 %nb_sectors, ptr %nb_sectors.addr, align 4
  store ptr %pnum, ptr %pnum.addr, align 8
  store i64 -2, ptr %start_off, align 8
  store i64 -2, ptr %prev_end_off, align 8
  %0 = load ptr, ptr %pnum.addr, align 8
  store i32 0, ptr %0, align 4
  br label %while.cond

while.cond:                                       ; preds = %if.end13, %entry
  %1 = load i32, ptr %nb_sectors.addr, align 4
  %cmp = icmp sgt i32 %1, 0
  br i1 %cmp, label %lor.end, label %lor.rhs

lor.rhs:                                          ; preds = %while.cond
  %2 = load i64, ptr %start_off, align 8
  %cmp1 = icmp eq i64 %2, -2
  br label %lor.end

lor.end:                                          ; preds = %lor.rhs, %while.cond
  %3 = phi i1 [ true, %while.cond ], [ %cmp1, %lor.rhs ]
  br i1 %3, label %while.body, label %while.end

while.body:                                       ; preds = %lor.end
  %4 = load ptr, ptr %s.addr, align 8
  %5 = load i64, ptr %sector_num.addr, align 8
  %call = call i64 @seek_to_sector(ptr noundef %4, i64 noundef %5)
  store i64 %call, ptr %offset, align 8
  %6 = load i64, ptr %start_off, align 8
  %cmp2 = icmp eq i64 %6, -2
  br i1 %cmp2, label %if.then, label %if.else

if.then:                                          ; preds = %while.body
  %7 = load i64, ptr %offset, align 8
  store i64 %7, ptr %start_off, align 8
  %8 = load i64, ptr %offset, align 8
  store i64 %8, ptr %prev_end_off, align 8
  br label %if.end5

if.else:                                          ; preds = %while.body
  %9 = load i64, ptr %offset, align 8
  %10 = load i64, ptr %prev_end_off, align 8
  %cmp3 = icmp ne i64 %9, %10
  br i1 %cmp3, label %if.then4, label %if.end

if.then4:                                         ; preds = %if.else
  br label %while.end

if.end:                                           ; preds = %if.else
  br label %if.end5

if.end5:                                          ; preds = %if.end, %if.then
  %11 = load ptr, ptr %s.addr, align 8
  %12 = load i64, ptr %sector_num.addr, align 8
  %13 = load i32, ptr %nb_sectors.addr, align 4
  %call6 = call i32 @cluster_remainder(ptr noundef %11, i64 noundef %12, i32 noundef %13)
  store i32 %call6, ptr %to_end, align 4
  %14 = load i32, ptr %to_end, align 4
  %15 = load i32, ptr %nb_sectors.addr, align 4
  %sub = sub i32 %15, %14
  store i32 %sub, ptr %nb_sectors.addr, align 4
  %16 = load i32, ptr %to_end, align 4
  %conv = sext i32 %16 to i64
  %17 = load i64, ptr %sector_num.addr, align 8
  %add = add i64 %17, %conv
  store i64 %add, ptr %sector_num.addr, align 8
  %18 = load i32, ptr %to_end, align 4
  %19 = load ptr, ptr %pnum.addr, align 8
  %20 = load i32, ptr %19, align 4
  %add7 = add i32 %20, %18
  store i32 %add7, ptr %19, align 4
  %21 = load i64, ptr %offset, align 8
  %cmp8 = icmp sgt i64 %21, 0
  br i1 %cmp8, label %if.then10, label %if.end13

if.then10:                                        ; preds = %if.end5
  %22 = load i32, ptr %to_end, align 4
  %conv11 = sext i32 %22 to i64
  %23 = load i64, ptr %prev_end_off, align 8
  %add12 = add i64 %23, %conv11
  store i64 %add12, ptr %prev_end_off, align 8
  br label %if.end13

if.end13:                                         ; preds = %if.then10, %if.end5
  br label %while.cond, !llvm.loop !13

while.end:                                        ; preds = %if.then4, %lor.end
  %24 = load i64, ptr %start_off, align 8
  ret i64 %24
}

; Function Attrs: nounwind sspstrong uwtable
define internal i32 @parallels_co_readv(ptr noundef %bs, i64 noundef %sector_num, i32 noundef %nb_sectors, ptr noundef %qiov) #0 {
entry:
  %bs.addr = alloca ptr, align 8
  %sector_num.addr = alloca i64, align 8
  %nb_sectors.addr = alloca i32, align 4
  %qiov.addr = alloca ptr, align 8
  %s = alloca ptr, align 8
  %bytes_done = alloca i64, align 8
  %hd_qiov = alloca %struct.QEMUIOVector, align 8
  %ret = alloca i32, align 4
  %position = alloca i64, align 8
  %n = alloca i32, align 4
  %nbytes = alloca i32, align 4
  store ptr %bs, ptr %bs.addr, align 8
  store i64 %sector_num, ptr %sector_num.addr, align 8
  store i32 %nb_sectors, ptr %nb_sectors.addr, align 4
  store ptr %qiov, ptr %qiov.addr, align 8
  %0 = load ptr, ptr %bs.addr, align 8
  %opaque = getelementptr inbounds %struct.BlockDriverState, ptr %0, i32 0, i32 7
  %1 = load ptr, ptr %opaque, align 8
  store ptr %1, ptr %s, align 8
  store i64 0, ptr %bytes_done, align 8
  store i32 0, ptr %ret, align 4
  %2 = load ptr, ptr %qiov.addr, align 8
  %niov = getelementptr inbounds %struct.QEMUIOVector, ptr %2, i32 0, i32 1
  %3 = load i32, ptr %niov, align 8
  call void @qemu_iovec_init(ptr noundef %hd_qiov, i32 noundef %3)
  br label %while.cond

while.cond:                                       ; preds = %if.end22, %entry
  %4 = load i32, ptr %nb_sectors.addr, align 4
  %cmp = icmp sgt i32 %4, 0
  br i1 %cmp, label %while.body, label %while.end

while.body:                                       ; preds = %while.cond
  %5 = load ptr, ptr %s, align 8
  %lock = getelementptr inbounds %struct.BDRVParallelsState, ptr %5, i32 0, i32 0
  call void @qemu_co_mutex_lock(ptr noundef %lock)
  %6 = load ptr, ptr %s, align 8
  %7 = load i64, ptr %sector_num.addr, align 8
  %8 = load i32, ptr %nb_sectors.addr, align 4
  %call = call i64 @block_status(ptr noundef %6, i64 noundef %7, i32 noundef %8, ptr noundef %n)
  store i64 %call, ptr %position, align 8
  %9 = load ptr, ptr %s, align 8
  %lock1 = getelementptr inbounds %struct.BDRVParallelsState, ptr %9, i32 0, i32 0
  call void @qemu_co_mutex_unlock(ptr noundef %lock1)
  %10 = load i32, ptr %n, align 4
  %shl = shl i32 %10, 9
  store i32 %shl, ptr %nbytes, align 4
  call void @qemu_iovec_reset(ptr noundef %hd_qiov)
  %11 = load ptr, ptr %qiov.addr, align 8
  %12 = load i64, ptr %bytes_done, align 8
  %13 = load i32, ptr %nbytes, align 4
  %conv = sext i32 %13 to i64
  call void @qemu_iovec_concat(ptr noundef %hd_qiov, ptr noundef %11, i64 noundef %12, i64 noundef %conv)
  %14 = load i64, ptr %position, align 8
  %cmp2 = icmp slt i64 %14, 0
  br i1 %cmp2, label %if.then, label %if.else14

if.then:                                          ; preds = %while.body
  %15 = load ptr, ptr %bs.addr, align 8
  %backing = getelementptr inbounds %struct.BlockDriverState, ptr %15, i32 0, i32 30
  %16 = load ptr, ptr %backing, align 8
  %tobool = icmp ne ptr %16, null
  br i1 %tobool, label %if.then4, label %if.else

if.then4:                                         ; preds = %if.then
  %17 = load ptr, ptr %bs.addr, align 8
  %backing5 = getelementptr inbounds %struct.BlockDriverState, ptr %17, i32 0, i32 30
  %18 = load ptr, ptr %backing5, align 8
  %19 = load i64, ptr %sector_num.addr, align 8
  %mul = mul i64 %19, 512
  %20 = load i32, ptr %nbytes, align 4
  %conv6 = sext i32 %20 to i64
  %call7 = call i32 @bdrv_co_preadv(ptr noundef %18, i64 noundef %mul, i64 noundef %conv6, ptr noundef %hd_qiov, i32 noundef 0)
  store i32 %call7, ptr %ret, align 4
  %21 = load i32, ptr %ret, align 4
  %cmp8 = icmp slt i32 %21, 0
  br i1 %cmp8, label %if.then10, label %if.end

if.then10:                                        ; preds = %if.then4
  br label %while.end

if.end:                                           ; preds = %if.then4
  br label %if.end13

if.else:                                          ; preds = %if.then
  %22 = load i32, ptr %nbytes, align 4
  %conv11 = sext i32 %22 to i64
  %call12 = call i64 @qemu_iovec_memset(ptr noundef %hd_qiov, i64 noundef 0, i32 noundef 0, i64 noundef %conv11)
  br label %if.end13

if.end13:                                         ; preds = %if.else, %if.end
  br label %if.end22

if.else14:                                        ; preds = %while.body
  %23 = load ptr, ptr %bs.addr, align 8
  %file = getelementptr inbounds %struct.BlockDriverState, ptr %23, i32 0, i32 31
  %24 = load ptr, ptr %file, align 8
  %25 = load i64, ptr %position, align 8
  %mul15 = mul i64 %25, 512
  %26 = load i32, ptr %nbytes, align 4
  %conv16 = sext i32 %26 to i64
  %call17 = call i32 @bdrv_co_preadv(ptr noundef %24, i64 noundef %mul15, i64 noundef %conv16, ptr noundef %hd_qiov, i32 noundef 0)
  store i32 %call17, ptr %ret, align 4
  %27 = load i32, ptr %ret, align 4
  %cmp18 = icmp slt i32 %27, 0
  br i1 %cmp18, label %if.then20, label %if.end21

if.then20:                                        ; preds = %if.else14
  br label %while.end

if.end21:                                         ; preds = %if.else14
  br label %if.end22

if.end22:                                         ; preds = %if.end21, %if.end13
  %28 = load i32, ptr %n, align 4
  %29 = load i32, ptr %nb_sectors.addr, align 4
  %sub = sub i32 %29, %28
  store i32 %sub, ptr %nb_sectors.addr, align 4
  %30 = load i32, ptr %n, align 4
  %conv23 = sext i32 %30 to i64
  %31 = load i64, ptr %sector_num.addr, align 8
  %add = add i64 %31, %conv23
  store i64 %add, ptr %sector_num.addr, align 8
  %32 = load i32, ptr %nbytes, align 4
  %conv24 = sext i32 %32 to i64
  %33 = load i64, ptr %bytes_done, align 8
  %add25 = add i64 %33, %conv24
  store i64 %add25, ptr %bytes_done, align 8
  br label %while.cond, !llvm.loop !7

while.end:                                        ; preds = %if.then20, %if.then10, %while.cond
  call void @qemu_iovec_destroy(ptr noundef %hd_qiov)
  %34 = load i32, ptr %ret, align 4
  ret i32 %34
}