; Function Attrs: nounwind sspstrong uwtable
define internal i32 @parallels_co_readv(ptr noundef readonly captures(none) %bs, i64 noundef %sector_num, i32 noundef %nb_sectors, ptr noundef %qiov) #0 {
entry:
  %hd_qiov = alloca %struct.QEMUIOVector, align 8
  %opaque = getelementptr inbounds nuw i8, ptr %bs, i64 24
  %0 = load ptr, ptr %opaque, align 8
  %niov = getelementptr inbounds nuw i8, ptr %qiov, i64 8
  %1 = load i32, ptr %niov, align 8
  call void @qemu_iovec_init(ptr noundef nonnull %hd_qiov, i32 noundef %1) #16
  %file = getelementptr inbounds nuw i8, ptr %bs, i64 16840
  %cmp20 = icmp sgt i32 %nb_sectors, 0
  br i1 %cmp20, label %while.body.lr.ph, label %while.end

while.body.lr.ph:                                 ; preds = %entry
  %tracks.i.i = getelementptr inbounds nuw i8, ptr %0, i64 140
  %bat_size.i.i = getelementptr inbounds nuw i8, ptr %0, i64 104
  %bat_bitmap.i.i = getelementptr inbounds nuw i8, ptr %0, i64 96
  %2 = getelementptr i8, ptr %0, i64 148
  %backing = getelementptr inbounds nuw i8, ptr %bs, i64 16832
  br label %while.body

while.body:                                       ; preds = %while.body.lr.ph, %if.end22
  %sector_num.addr.024 = phi i64 [ %sector_num, %while.body.lr.ph ], [ %add, %if.end22 ]
  %nb_sectors.addr.023 = phi i32 [ %nb_sectors, %while.body.lr.ph ], [ %sub, %if.end22 ]
  %ret.022 = phi i32 [ 0, %while.body.lr.ph ], [ %ret.2, %if.end22 ]
  %bytes_done.021 = phi i64 [ 0, %while.body.lr.ph ], [ %add25, %if.end22 ]
  call void @qemu_co_mutex_lock(ptr noundef %0) #16
  %3 = load i32, ptr %tracks.i.i, align 4
  %conv.i.i = zext i32 %3 to i64
  %4 = load i32, ptr %bat_size.i.i, align 8
  br label %while.body.i

while.body.i:                                     ; preds = %if.end5.i, %while.body
  %n.0 = phi i32 [ 0, %while.body ], [ %add7.i, %if.end5.i ]
  %cmp123.i = phi i1 [ true, %while.body ], [ %cmp1.i, %if.end5.i ]
  %sector_num.addr.022.i = phi i64 [ %sector_num.addr.024, %while.body ], [ %add.i, %if.end5.i ]
  %nb_sectors.addr.021.i = phi i32 [ %nb_sectors.addr.023, %while.body ], [ %sub.i, %if.end5.i ]
  %prev_end_off.020.i = phi i64 [ -2, %while.body ], [ %spec.select.i, %if.end5.i ]
  %start_off.019.i = phi i64 [ -2, %while.body ], [ %start_off.1.i, %if.end5.i ]
  %div.i.i = sdiv i64 %sector_num.addr.022.i, %conv.i.i
  %conv1.i.i = trunc i64 %div.i.i to i32
  %rem.i.i = srem i64 %sector_num.addr.022.i, %conv.i.i
  %cmp.not.i.i = icmp ugt i32 %4, %conv1.i.i
  br i1 %cmp.not.i.i, label %lor.lhs.false.i.i, label %seek_to_sector.exit.i

lor.lhs.false.i.i:                                ; preds = %while.body.i
  %5 = load ptr, ptr %bat_bitmap.i.i, align 8
  %idxprom.i.i = and i64 %div.i.i, 4294967295
  %arrayidx.i.i = getelementptr i32, ptr %5, i64 %idxprom.i.i
  %6 = load i32, ptr %arrayidx.i.i, align 4
  %cmp6.i.i = icmp eq i32 %6, 0
  br i1 %cmp6.i.i, label %seek_to_sector.exit.i, label %if.end.i.i

if.end.i.i:                                       ; preds = %lor.lhs.false.i.i
  %s.val8.i.i = load i32, ptr %2, align 4
  %conv.i.i.i = zext i32 %6 to i64
  %conv1.i.i.i = zext i32 %s.val8.i.i to i64
  %mul.i.i.i = mul nuw i64 %conv1.i.i.i, %conv.i.i.i
  %conv8.i.i = and i64 %rem.i.i, 4294967295
  %add.i.i = add nuw i64 %mul.i.i.i, %conv8.i.i
  br label %seek_to_sector.exit.i

seek_to_sector.exit.i:                            ; preds = %if.end.i.i, %lor.lhs.false.i.i, %while.body.i
  %retval.0.i.i = phi i64 [ %add.i.i, %if.end.i.i ], [ -1, %lor.lhs.false.i.i ], [ -1, %while.body.i ]
  br i1 %cmp123.i, label %if.end5.i, label %if.else.i

if.else.i:                                        ; preds = %seek_to_sector.exit.i
  %cmp3.not.i = icmp eq i64 %retval.0.i.i, %prev_end_off.020.i
  br i1 %cmp3.not.i, label %if.end5.i, label %block_status.exit

if.end5.i:                                        ; preds = %if.else.i, %seek_to_sector.exit.i
  %start_off.1.i = phi i64 [ %start_off.019.i, %if.else.i ], [ %retval.0.i.i, %seek_to_sector.exit.i ]
  %prev_end_off.1.i = phi i64 [ %prev_end_off.020.i, %if.else.i ], [ %retval.0.i.i, %seek_to_sector.exit.i ]
  %7 = trunc i64 %rem.i.i to i32
  %conv3.i.i = sub i32 %3, %7
  %cond.i.i = call i32 @llvm.smin.i32(i32 %nb_sectors.addr.021.i, i32 %conv3.i.i)
  %sub.i = sub i32 %nb_sectors.addr.021.i, %cond.i.i
  %conv.i = sext i32 %cond.i.i to i64
  %add.i = add i64 %sector_num.addr.022.i, %conv.i
  %add7.i = add i32 %cond.i.i, %n.0
  %cmp8.i = icmp sgt i64 %retval.0.i.i, 0
  %add12.i = select i1 %cmp8.i, i64 %conv.i, i64 0
  %spec.select.i = add i64 %prev_end_off.1.i, %add12.i
  %cmp.i = icmp sgt i32 %sub.i, 0
  %cmp1.i = icmp eq i64 %start_off.1.i, -2
  %8 = select i1 %cmp.i, i1 true, i1 %cmp1.i
  br i1 %8, label %while.body.i, label %block_status.exit, !llvm.loop !7

block_status.exit:                                ; preds = %if.else.i, %if.end5.i
  %n.1 = phi i32 [ %add7.i, %if.end5.i ], [ %n.0, %if.else.i ]
  %start_off.0.lcssa.i = phi i64 [ %start_off.1.i, %if.end5.i ], [ %start_off.019.i, %if.else.i ]
  call void @qemu_co_mutex_unlock(ptr noundef %0) #16
  %shl = shl i32 %n.1, 9
  call void @qemu_iovec_reset(ptr noundef nonnull %hd_qiov) #16
  %conv = sext i32 %shl to i64
  call void @qemu_iovec_concat(ptr noundef nonnull %hd_qiov, ptr noundef %qiov, i64 noundef %bytes_done.021, i64 noundef %conv) #16
  %cmp2 = icmp slt i64 %start_off.0.lcssa.i, 0
  br i1 %cmp2, label %if.then, label %if.else14

if.then:                                          ; preds = %block_status.exit
  %9 = load ptr, ptr %backing, align 8
  %tobool.not = icmp eq ptr %9, null
  br i1 %tobool.not, label %if.else, label %if.then4

if.then4:                                         ; preds = %if.then
  %mul = shl i64 %sector_num.addr.024, 9
  %call7 = call i32 @bdrv_co_preadv(ptr noundef nonnull %9, i64 noundef %mul, i64 noundef %conv, ptr noundef nonnull %hd_qiov, i32 noundef 0) #16
  %cmp8 = icmp slt i32 %call7, 0
  br i1 %cmp8, label %while.end, label %if.end22

if.else:                                          ; preds = %if.then
  %call12 = call i64 @qemu_iovec_memset(ptr noundef nonnull %hd_qiov, i64 noundef 0, i32 noundef 0, i64 noundef %conv) #16
  br label %if.end22

if.else14:                                        ; preds = %block_status.exit
  %10 = load ptr, ptr %file, align 8
  %mul15 = shl i64 %start_off.0.lcssa.i, 9
  %call17 = call i32 @bdrv_co_preadv(ptr noundef %10, i64 noundef %mul15, i64 noundef %conv, ptr noundef nonnull %hd_qiov, i32 noundef 0) #16
  %cmp18 = icmp slt i32 %call17, 0
  br i1 %cmp18, label %while.end, label %if.end22

if.end22:                                         ; preds = %if.else14, %if.else, %if.then4
  %ret.2 = phi i32 [ %call7, %if.then4 ], [ %ret.022, %if.else ], [ %call17, %if.else14 ]
  %sub = sub i32 %nb_sectors.addr.023, %n.1
  %conv23 = sext i32 %n.1 to i64
  %add = add i64 %sector_num.addr.024, %conv23
  %add25 = add i64 %bytes_done.021, %conv
  %cmp = icmp sgt i32 %sub, 0
  br i1 %cmp, label %while.body, label %while.end, !llvm.loop !8

while.end:                                        ; preds = %if.end22, %if.then4, %if.else14, %entry
  %ret.1 = phi i32 [ 0, %entry ], [ %call17, %if.else14 ], [ %call7, %if.then4 ], [ %ret.2, %if.end22 ]
  call void @qemu_iovec_destroy(ptr noundef nonnull %hd_qiov) #16
  ret i32 %ret.1
}